target datalayout = "e-m:e-p270:32:32-p271:32:32-p272:64:64-i64:64-i128:128-f80:128-n8:16:32:64-S128"
target triple = "x86_64-pc-linux-gnu"

%struct.indexed_table_ref_iter = type { ptr, %struct.reftable_buf, ptr, i32, i32, %struct.block_reader, %struct.block_iter, i32 }
%struct.reftable_buf = type { i64, i64, ptr }
%struct.block_reader = type { i32, %struct.reftable_block, i32, ptr, ptr, i64, i32, ptr, i16, i32 }
%struct.reftable_block = type { ptr, i64, %struct.reftable_block_source }
%struct.reftable_block_source = type { ptr, ptr }
%struct.block_iter = type { i32, ptr, i64, i32, %struct.reftable_buf, %struct.reftable_buf }

; Function Attrs: nounwind uwtable
define internal i32 @indexed_table_ref_iter_next_block(ptr noundef %0) #0 {
  %2 = alloca i32, align 4
  %3 = alloca ptr, align 8
  %4 = alloca i64, align 8
  %5 = alloca i32, align 4
  %6 = alloca i32, align 4
  store ptr %0, ptr %3, align 8, !tbaa !30
  call void @llvm.lifetime.start.p0(i64 8, ptr %4) #7
  call void @llvm.lifetime.start.p0(i64 4, ptr %5) #7
  store i32 0, ptr %5, align 4, !tbaa !26
  %7 = load ptr, ptr %3, align 8, !tbaa !30
  %8 = getelementptr inbounds nuw %struct.indexed_table_ref_iter, ptr %7, i32 0, i32 3
  %9 = load i32, ptr %8, align 8, !tbaa !51
  %10 = load ptr, ptr %3, align 8, !tbaa !30
  %11 = getelementptr inbounds nuw %struct.indexed_table_ref_iter, ptr %10, i32 0, i32 4
  %12 = load i32, ptr %11, align 4, !tbaa !50
  %13 = icmp eq i32 %9, %12
  br i1 %13, label %14, label %17

14:                                               ; preds = %1
  %15 = load ptr, ptr %3, align 8, !tbaa !30
  %16 = getelementptr inbounds nuw %struct.indexed_table_ref_iter, ptr %15, i32 0, i32 7
  store i32 1, ptr %16, align 8, !tbaa !52
  store i32 1, ptr %2, align 4
  store i32 1, ptr %6, align 4
  br label %51

17:                                               ; preds = %1
  %18 = load ptr, ptr %3, align 8, !tbaa !30
  %19 = getelementptr inbounds nuw %struct.indexed_table_ref_iter, ptr %18, i32 0, i32 5
  %20 = getelementptr inbounds nuw %struct.block_reader, ptr %19, i32 0, i32 1
  call void @reftable_block_done(ptr noundef %20)
  %21 = load ptr, ptr %3, align 8, !tbaa !30
  %22 = getelementptr inbounds nuw %struct.indexed_table_ref_iter, ptr %21, i32 0, i32 2
  %23 = load ptr, ptr %22, align 8, !tbaa !49
  %24 = load ptr, ptr %3, align 8, !tbaa !30
  %25 = getelementptr inbounds nuw %struct.indexed_table_ref_iter, ptr %24, i32 0, i32 3
  %26 = load i32, ptr %25, align 8, !tbaa !51
  %27 = add nsw i32 %26, 1
  store i32 %27, ptr %25, align 8, !tbaa !51
  %28 = sext i32 %26 to i64
  %29 = getelementptr inbounds i64, ptr %23, i64 %28
  %30 = load i64, ptr %29, align 8, !tbaa !33
  store i64 %30, ptr %4, align 8, !tbaa !33
  %31 = load ptr, ptr %3, align 8, !tbaa !30
  %32 = getelementptr inbounds nuw %struct.indexed_table_ref_iter, ptr %31, i32 0, i32 0
  %33 = load ptr, ptr %32, align 8, !tbaa !42
  %34 = load ptr, ptr %3, align 8, !tbaa !30
  %35 = getelementptr inbounds nuw %struct.indexed_table_ref_iter, ptr %34, i32 0, i32 5
  %36 = load i64, ptr %4, align 8, !tbaa !33
  %37 = call i32 @reader_init_block_reader(ptr noundef %33, ptr noundef %35, i64 noundef %36, i8 noundef zeroext 114)
  store i32 %37, ptr %5, align 4, !tbaa !26
  %38 = load i32, ptr %5, align 4, !tbaa !26
  %39 = icmp slt i32 %38, 0
  br i1 %39, label %40, label %42

40:                                               ; preds = %17
  %41 = load i32, ptr %5, align 4, !tbaa !26
  store i32 %41, ptr %2, align 4
  store i32 1, ptr %6, align 4
  br label %51

42:                                               ; preds = %17
  %43 = load i32, ptr %5, align 4, !tbaa !26
  %44 = icmp sgt i32 %43, 0
  br i1 %44, label %45, label %46

45:                                               ; preds = %42
  store i32 -3, ptr %2, align 4
  store i32 1, ptr %6, align 4
  br label %51

46:                                               ; preds = %42
  %47 = load ptr, ptr %3, align 8, !tbaa !30
  %48 = getelementptr inbounds nuw %struct.indexed_table_ref_iter, ptr %47, i32 0, i32 6
  %49 = load ptr, ptr %3, align 8, !tbaa !30
  %50 = getelementptr inbounds nuw %struct.indexed_table_ref_iter, ptr %49, i32 0, i32 5
  call void @block_iter_seek_start(ptr noundef %48, ptr noundef %50)
  store i32 0, ptr %2, align 4
  store i32 1, ptr %6, align 4
  br label %51

51:                                               ; preds = %46, %45, %40, %14
  call void @llvm.lifetime.end.p0(i64 4, ptr %5) #7
  call void @llvm.lifetime.end.p0(i64 8, ptr %4) #7
  %52 = load i32, ptr %2, align 4
  ret i32 %52
}

; Function Attrs: nounwind uwtable
define dso_local i32 @indexed_table_ref_iter_new(ptr noundef %0, ptr noundef %1, ptr noundef %2, i32 noundef %3, ptr noundef %4, i32 noundef %5) #0 {
  %7 = alloca ptr, align 8
  %8 = alloca ptr, align 8
  %9 = alloca ptr, align 8
  %10 = alloca i32, align 4
  %11 = alloca ptr, align 8
  %12 = alloca i32, align 4
  %13 = alloca %struct.indexed_table_ref_iter, align 8
  %14 = alloca ptr, align 8
  %15 = alloca i32, align 4
  store ptr %0, ptr %7, align 8, !tbaa !20
  store ptr %1, ptr %8, align 8, !tbaa !22
  store ptr %2, ptr %9, align 8, !tbaa !24
  store i32 %3, ptr %10, align 4, !tbaa !26
  store ptr %4, ptr %11, align 8, !tbaa !28
  store i32 %5, ptr %12, align 4, !tbaa !26
  call void @llvm.lifetime.start.p0(i64 232, ptr %13) #7
  call void @llvm.memset.p0.i64(ptr align 8 %13, i8 0, i64 232, i1 false)
  call void @llvm.lifetime.start.p0(i64 8, ptr %14) #7
  call void @llvm.lifetime.start.p0(i64 4, ptr %15) #7
  store i32 0, ptr %15, align 4, !tbaa !26
  %16 = call ptr @reftable_calloc(i64 noundef 1, i64 noundef 232)
  store ptr %16, ptr %14, align 8, !tbaa !30
  %17 = load ptr, ptr %14, align 8, !tbaa !30
  %18 = icmp ne ptr %17, null
  br i1 %18, label %20, label %19

19:                                               ; preds = %6
  store i32 -13, ptr %15, align 4, !tbaa !26
  br label %49

20:                                               ; preds = %6
  %21 = load ptr, ptr %14, align 8, !tbaa !30
  call void @llvm.memcpy.p0.p0.i64(ptr align 8 %21, ptr align 8 %13, i64 232, i1 false), !tbaa.struct !32
  %22 = load ptr, ptr %8, align 8, !tbaa !22
  %23 = load ptr, ptr %14, align 8, !tbaa !30
  %24 = getelementptr inbounds nuw %struct.indexed_table_ref_iter, ptr %23, i32 0, i32 0
  store ptr %22, ptr %24, align 8, !tbaa !42
  %25 = load ptr, ptr %14, align 8, !tbaa !30
  %26 = getelementptr inbounds nuw %struct.indexed_table_ref_iter, ptr %25, i32 0, i32 1
  %27 = load ptr, ptr %9, align 8, !tbaa !24
  %28 = load i32, ptr %10, align 4, !tbaa !26
  %29 = sext i32 %28 to i64
  %30 = call i32 @reftable_buf_add(ptr noundef %26, ptr noundef %27, i64 noundef %29)
  store i32 %30, ptr %15, align 4, !tbaa !26
  %31 = load i32, ptr %15, align 4, !tbaa !26
  %32 = icmp slt i32 %31, 0
  br i1 %32, label %33, label %34

33:                                               ; preds = %20
  br label %49

34:                                               ; preds = %20
  %35 = load ptr, ptr %11, align 8, !tbaa !28
  %36 = load ptr, ptr %14, align 8, !tbaa !30
  %37 = getelementptr inbounds nuw %struct.indexed_table_ref_iter, ptr %36, i32 0, i32 2
  store ptr %35, ptr %37, align 8, !tbaa !49
  %38 = load i32, ptr %12, align 4, !tbaa !26
  %39 = load ptr, ptr %14, align 8, !tbaa !30
  %40 = getelementptr inbounds nuw %struct.indexed_table_ref_iter, ptr %39, i32 0, i32 4
  store i32 %38, ptr %40, align 4, !tbaa !50
  %41 = load ptr, ptr %14, align 8, !tbaa !30
  %42 = call i32 @indexed_table_ref_iter_next_block(ptr noundef %41)
  store i32 %42, ptr %15, align 4, !tbaa !26
  %43 = load i32, ptr %15, align 4, !tbaa !26
  %44 = icmp slt i32 %43, 0
  br i1 %44, label %45, label %46

45:                                               ; preds = %34
  br label %49

46:                                               ; preds = %34
  %47 = load ptr, ptr %14, align 8, !tbaa !30
  %48 = load ptr, ptr %7, align 8, !tbaa !20
  store ptr %47, ptr %48, align 8, !tbaa !30
  store i32 0, ptr %15, align 4, !tbaa !26
  br label %49

49:                                               ; preds = %46, %45, %33, %19
  %50 = load i32, ptr %15, align 4, !tbaa !26
  %51 = icmp slt i32 %50, 0
  br i1 %51, label %52, label %55

52:                                               ; preds = %49
  %53 = load ptr, ptr %7, align 8, !tbaa !20
  store ptr null, ptr %53, align 8, !tbaa !30
  %54 = load ptr, ptr %14, align 8, !tbaa !30
  call void @reftable_free(ptr noundef %54)
  br label %55

55:                                               ; preds = %52, %49
  %56 = load i32, ptr %15, align 4, !tbaa !26
  call void @llvm.lifetime.end.p0(i64 4, ptr %15) #7
  call void @llvm.lifetime.end.p0(i64 8, ptr %14) #7
  call void @llvm.lifetime.end.p0(i64 232, ptr %13) #7
  ret i32 %56
}