; Function Attrs: nounwind uwtable
define dso_local range(i32 -2147483648, 1) i32 @indexed_table_ref_iter_new(ptr noundef writeonly captures(none) initializes((0, 8)) %0, ptr noundef %1, ptr noundef %2, i32 noundef %3, ptr noundef %4, i32 noundef %5) local_unnamed_addr #0 {
  %7 = tail call ptr @reftable_calloc(i64 noundef 1, i64 noundef 232) #10
  %.not = icmp eq ptr %7, null
  br i1 %.not, label %indexed_table_ref_iter_next_block.exit.thread, label %8

8:                                                ; preds = %6
  %9 = getelementptr inbounds nuw i8, ptr %7, i64 8
  tail call void @llvm.memset.p0.i64(ptr noundef nonnull align 8 dereferenceable(224) %9, i8 0, i64 224, i1 false)
  store ptr %1, ptr %7, align 8, !tbaa !14
  %10 = getelementptr inbounds nuw i8, ptr %7, i64 8
  %11 = sext i32 %3 to i64
  %12 = tail call i32 @reftable_buf_add(ptr noundef nonnull %10, ptr noundef %2, i64 noundef %11) #10
  %13 = icmp slt i32 %12, 0
  br i1 %13, label %indexed_table_ref_iter_next_block.exit.thread, label %14

14:                                               ; preds = %8
  %15 = getelementptr inbounds nuw i8, ptr %7, i64 32
  store ptr %4, ptr %15, align 8, !tbaa !29
  %16 = getelementptr inbounds nuw i8, ptr %7, i64 44
  store i32 %5, ptr %16, align 4, !tbaa !30
  %17 = getelementptr inbounds nuw i8, ptr %7, i64 40
  %18 = load i32, ptr %17, align 8, !tbaa !31
  %19 = icmp eq i32 %18, %5
  br i1 %19, label %20, label %22

20:                                               ; preds = %14
  %21 = getelementptr inbounds nuw i8, ptr %7, i64 224
  store i32 1, ptr %21, align 8, !tbaa !32
  br label %37

22:                                               ; preds = %14
  %23 = getelementptr inbounds nuw i8, ptr %7, i64 48
  %24 = getelementptr inbounds nuw i8, ptr %7, i64 56
  tail call void @reftable_block_done(ptr noundef nonnull %24) #10
  %25 = load ptr, ptr %15, align 8, !tbaa !29
  %26 = load i32, ptr %17, align 8, !tbaa !31
  %27 = add nsw i32 %26, 1
  store i32 %27, ptr %17, align 8, !tbaa !31
  %28 = sext i32 %26 to i64
  %29 = getelementptr inbounds i64, ptr %25, i64 %28
  %30 = load i64, ptr %29, align 8, !tbaa !33
  %31 = load ptr, ptr %7, align 8, !tbaa !14
  %32 = tail call i32 @reader_init_block_reader(ptr noundef %31, ptr noundef nonnull %23, i64 noundef %30, i8 noundef zeroext 114) #10
  %33 = icmp slt i32 %32, 0
  br i1 %33, label %indexed_table_ref_iter_next_block.exit.thread, label %34

34:                                               ; preds = %22
  %.not.i = icmp eq i32 %32, 0
  br i1 %.not.i, label %35, label %indexed_table_ref_iter_next_block.exit.thread

35:                                               ; preds = %34
  %36 = getelementptr inbounds nuw i8, ptr %7, i64 144
  tail call void @block_iter_seek_start(ptr noundef nonnull %36, ptr noundef nonnull %23) #10
  br label %37

37:                                               ; preds = %20, %35
  store ptr %7, ptr %0, align 8, !tbaa !34
  br label %38

indexed_table_ref_iter_next_block.exit.thread:    ; preds = %34, %22, %8, %6
  %.0.ph = phi i32 [ -13, %6 ], [ %12, %8 ], [ -3, %34 ], [ %32, %22 ]
  store ptr null, ptr %0, align 8, !tbaa !34
  tail call void @reftable_free(ptr noundef %7) #10
  br label %38

38:                                               ; preds = %37, %indexed_table_ref_iter_next_block.exit.thread
  %.024 = phi i32 [ %.0.ph, %indexed_table_ref_iter_next_block.exit.thread ], [ 0, %37 ]
  ret i32 %.024
}